target datalayout = "e-m:e-p270:32:32-p271:32:32-p272:64:64-i64:64-i128:128-f80:128-n8:16:32:64-S128"
target triple = "x86_64-pc-linux-gnu"

%struct.ShellState = type { ptr, i8, i8, i8, i8, i8, i8, i8, i8, i8, i8, i8, i8, i8, %struct.ColModeOpts, i32, i32, i32, i32, i32, i32, i32, ptr, ptr, ptr, i32, i32, i32, i32, i32, i32, i32, i32, i32, i32, i32, i32, i32, i64, ptr, ptr, [30 x i8], [20 x i8], [20 x i8], [20 x i8], [20 x i8], ptr, ptr, i32, [20 x i8], [4096 x i8], ptr, ptr, [5 x %struct.AuxDb], ptr, ptr, i32, i32, ptr, %struct.EQPGraph, %struct.ExpertInfo }
%struct.ColModeOpts = type { i32, i8, i8 }
%struct.AuxDb = type { ptr, ptr, ptr }
%struct.EQPGraph = type { ptr, ptr, [100 x i8] }
%struct.ExpertInfo = type { ptr, i32 }

@.str.1705 = private unnamed_addr constant [29 x i8] c"Progress limit reached (%u)\0A\00", align 1
@.str.1706 = private unnamed_addr constant [13 x i8] c"Progress %u\0A\00", align 1

; Function Attrs: nounwind uwtable
define internal i32 @progress_handler(ptr noundef %0) #0 {
  %2 = alloca i32, align 4
  %3 = alloca ptr, align 8
  %4 = alloca ptr, align 8
  %5 = alloca i32, align 4
  store ptr %0, ptr %3, align 8, !tbaa !53
  call void @llvm.lifetime.start.p0(i64 8, ptr %4) #14
  %6 = load ptr, ptr %3, align 8, !tbaa !53
  store ptr %6, ptr %4, align 8, !tbaa !373
  %7 = load ptr, ptr %4, align 8, !tbaa !373
  %8 = getelementptr inbounds nuw %struct.ShellState, ptr %7, i32 0, i32 33
  %9 = load i32, ptr %8, align 8, !tbaa !455
  %10 = add i32 %9, 1
  store i32 %10, ptr %8, align 8, !tbaa !455
  %11 = load ptr, ptr %4, align 8, !tbaa !373
  %12 = getelementptr inbounds nuw %struct.ShellState, ptr %11, i32 0, i32 33
  %13 = load i32, ptr %12, align 8, !tbaa !455
  %14 = load ptr, ptr %4, align 8, !tbaa !373
  %15 = getelementptr inbounds nuw %struct.ShellState, ptr %14, i32 0, i32 34
  %16 = load i32, ptr %15, align 4, !tbaa !454
  %17 = icmp uge i32 %13, %16
  br i1 %17, label %18, label %49

18:                                               ; preds = %1
  %19 = load ptr, ptr %4, align 8, !tbaa !373
  %20 = getelementptr inbounds nuw %struct.ShellState, ptr %19, i32 0, i32 34
  %21 = load i32, ptr %20, align 4, !tbaa !454
  %22 = icmp ugt i32 %21, 0
  br i1 %22, label %23, label %49

23:                                               ; preds = %18
  %24 = load ptr, ptr %4, align 8, !tbaa !373
  %25 = getelementptr inbounds nuw %struct.ShellState, ptr %24, i32 0, i32 23
  %26 = load ptr, ptr %25, align 8, !tbaa !354
  %27 = load ptr, ptr %4, align 8, !tbaa !373
  %28 = getelementptr inbounds nuw %struct.ShellState, ptr %27, i32 0, i32 33
  %29 = load i32, ptr %28, align 8, !tbaa !455
  %30 = call i32 (ptr, ptr, ...) @fprintf(ptr noundef %26, ptr noundef @.str.1705, i32 noundef %29) #14
  %31 = load ptr, ptr %4, align 8, !tbaa !373
  %32 = getelementptr inbounds nuw %struct.ShellState, ptr %31, i32 0, i32 35
  %33 = load i32, ptr %32, align 8, !tbaa !453
  %34 = and i32 %33, 2
  %35 = icmp ne i32 %34, 0
  br i1 %35, label %36, label %39

36:                                               ; preds = %23
  %37 = load ptr, ptr %4, align 8, !tbaa !373
  %38 = getelementptr inbounds nuw %struct.ShellState, ptr %37, i32 0, i32 33
  store i32 0, ptr %38, align 8, !tbaa !455
  br label %39

39:                                               ; preds = %36, %23
  %40 = load ptr, ptr %4, align 8, !tbaa !373
  %41 = getelementptr inbounds nuw %struct.ShellState, ptr %40, i32 0, i32 35
  %42 = load i32, ptr %41, align 8, !tbaa !453
  %43 = and i32 %42, 4
  %44 = icmp ne i32 %43, 0
  br i1 %44, label %45, label %48

45:                                               ; preds = %39
  %46 = load ptr, ptr %4, align 8, !tbaa !373
  %47 = getelementptr inbounds nuw %struct.ShellState, ptr %46, i32 0, i32 34
  store i32 0, ptr %47, align 4, !tbaa !454
  br label %48

48:                                               ; preds = %45, %39
  store i32 1, ptr %2, align 4
  store i32 1, ptr %5, align 4
  br label %64

49:                                               ; preds = %18, %1
  %50 = load ptr, ptr %4, align 8, !tbaa !373
  %51 = getelementptr inbounds nuw %struct.ShellState, ptr %50, i32 0, i32 35
  %52 = load i32, ptr %51, align 8, !tbaa !453
  %53 = and i32 %52, 1
  %54 = icmp eq i32 %53, 0
  br i1 %54, label %55, label %63

55:                                               ; preds = %49
  %56 = load ptr, ptr %4, align 8, !tbaa !373
  %57 = getelementptr inbounds nuw %struct.ShellState, ptr %56, i32 0, i32 23
  %58 = load ptr, ptr %57, align 8, !tbaa !354
  %59 = load ptr, ptr %4, align 8, !tbaa !373
  %60 = getelementptr inbounds nuw %struct.ShellState, ptr %59, i32 0, i32 33
  %61 = load i32, ptr %60, align 8, !tbaa !455
  %62 = call i32 (ptr, ptr, ...) @fprintf(ptr noundef %58, ptr noundef @.str.1706, i32 noundef %61) #14
  br label %63

63:                                               ; preds = %55, %49
  store i32 0, ptr %2, align 4
  store i32 1, ptr %5, align 4
  br label %64

64:                                               ; preds = %63, %48
  call void @llvm.lifetime.end.p0(i64 8, ptr %4) #14
  %65 = load i32, ptr %2, align 4
  ret i32 %65
}