; Function Attrs: nofree nounwind uwtable
define internal range(i32 0, 2) i32 @progress_handler(ptr noundef captures(none) %0) #17 {
  %2 = getelementptr inbounds nuw i8, ptr %0, i64 120
  %3 = load i32, ptr %2, align 8, !tbaa !557
  %4 = add i32 %3, 1
  store i32 %4, ptr %2, align 8, !tbaa !557
  %5 = getelementptr inbounds nuw i8, ptr %0, i64 124
  %6 = load i32, ptr %5, align 4, !tbaa !556
  %7 = add i32 %6, -1
  %or.cond.not = icmp ult i32 %7, %4
  br i1 %or.cond.not, label %8, label %19

8:                                                ; preds = %1
  %9 = getelementptr inbounds nuw i8, ptr %0, i64 72
  %10 = load ptr, ptr %9, align 8, !tbaa !462
  %11 = tail call i32 (ptr, ptr, ...) @fprintf(ptr noundef %10, ptr noundef nonnull @.str.1705, i32 noundef %4) #43
  %12 = getelementptr inbounds nuw i8, ptr %0, i64 128
  %13 = load i32, ptr %12, align 8, !tbaa !555
  %14 = and i32 %13, 2
  %.not17 = icmp eq i32 %14, 0
  br i1 %.not17, label %16, label %15

15:                                               ; preds = %8
  store i32 0, ptr %2, align 8, !tbaa !557
  br label %16

16:                                               ; preds = %15, %8
  %17 = and i32 %13, 4
  %.not18 = icmp eq i32 %17, 0
  br i1 %.not18, label %28, label %18

18:                                               ; preds = %16
  store i32 0, ptr %5, align 4, !tbaa !556
  br label %28

19:                                               ; preds = %1
  %20 = getelementptr inbounds nuw i8, ptr %0, i64 128
  %21 = load i32, ptr %20, align 8, !tbaa !555
  %22 = and i32 %21, 1
  %23 = icmp eq i32 %22, 0
  br i1 %23, label %24, label %28

24:                                               ; preds = %19
  %25 = getelementptr inbounds nuw i8, ptr %0, i64 72
  %26 = load ptr, ptr %25, align 8, !tbaa !462
  %27 = tail call i32 (ptr, ptr, ...) @fprintf(ptr noundef %26, ptr noundef nonnull @.str.1706, i32 noundef %4) #43
  br label %28

28:                                               ; preds = %19, %24, %16, %18
  %.0 = phi i32 [ 1, %18 ], [ 1, %16 ], [ 0, %24 ], [ 0, %19 ]
  ret i32 %.0
}